; Function Attrs: mustprogress uwtable
define noundef nonnull align 4 dereferenceable(4) ptr @_ZNK17InteractionOfType2amEv(ptr nocapture noundef nonnull readonly align 8 dereferenceable(104) %0) local_unnamed_addr #1 align 2 {
  %2 = getelementptr inbounds i8, ptr %0, i64 8
  %3 = load ptr, ptr %2, align 8
  %4 = load ptr, ptr %0, align 8
  %5 = ptrtoint ptr %3 to i64
  %6 = ptrtoint ptr %4 to i64
  %7 = sub i64 %5, %6
  %8 = icmp ugt i64 %7, 16
  br i1 %8, label %10, label %9

9:                                                ; preds = %1
  tail call void @_ZN3gmx8internal13assertHandlerEPKcS2_S2_S2_i(ptr noundef nonnull @.str.20, ptr noundef nonnull @.str.21, ptr noundef nonnull @"__PRETTY_FUNCTION__._ZZNK17InteractionOfType2amEvENK3$_0clEv", ptr noundef nonnull @.str.11, i32 noundef 161) #22
  unreachable

10:                                               ; preds = %1
  %11 = getelementptr inbounds i8, ptr %4, i64 16
  ret ptr %11
}